; Function Attrs: nounwind sspstrong uwtable
define dso_local void @virtio_bus_stop_ioeventfd(ptr noundef captures(none) %bus) local_unnamed_addr #0 {
entry:
  %ioeventfd_started = getelementptr inbounds nuw i8, ptr %bus, i64 120
  %0 = load i8, ptr %ioeventfd_started, align 8
  %tobool = trunc i8 %0 to i1
  br i1 %tobool, label %if.end, label %return

if.end:                                           ; preds = %entry
  %ioeventfd_grabbed = getelementptr inbounds nuw i8, ptr %bus, i64 124
  %1 = load i32, ptr %ioeventfd_grabbed, align 4
  %tobool1.not = icmp eq i32 %1, 0
  br i1 %tobool1.not, label %if.then2, label %if.end4

if.then2:                                         ; preds = %if.end
  %2 = getelementptr i8, ptr %bus, i64 80
  %bus.val = load ptr, ptr %2, align 8
  %tobool.not.i = icmp eq ptr %bus.val, null
  br i1 %tobool.not.i, label %virtio_bus_get_device.exit, label %cond.true.i

cond.true.i:                                      ; preds = %if.then2
  %child.i = getelementptr inbounds nuw i8, ptr %bus.val, i64 16
  %3 = load ptr, ptr %child.i, align 8
  br label %virtio_bus_get_device.exit

virtio_bus_get_device.exit:                       ; preds = %if.then2, %cond.true.i
  %cond.i = phi ptr [ %3, %cond.true.i ], [ null, %if.then2 ]
  %call.i = tail call ptr @object_get_class(ptr noundef %cond.i) #5
  %call1.i = tail call ptr @object_class_dynamic_cast_assert(ptr noundef %call.i, ptr noundef nonnull @.str.13, ptr noundef nonnull @.str.14, i32 noundef 85, ptr noundef nonnull @__func__.VIRTIO_DEVICE_GET_CLASS) #5
  %stop_ioeventfd = getelementptr inbounds nuw i8, ptr %call1.i, i64 304
  %4 = load ptr, ptr %stop_ioeventfd, align 8
  tail call void %4(ptr noundef %cond.i) #5
  br label %if.end4

if.end4:                                          ; preds = %virtio_bus_get_device.exit, %if.end
  store i8 0, ptr %ioeventfd_started, align 8
  br label %return

return:                                           ; preds = %entry, %if.end4
  ret void
}